target datalayout = "e-m:e-p270:32:32-p271:32:32-p272:64:64-i64:64-i128:128-f80:128-n8:16:32:64-S128"
target triple = "x86_64-unknown-linux-gnu"

%struct.ESPState = type { %struct.DeviceState, [16 x i8], [16 x i8], ptr, ptr, i8, i8, i32, i32, i32, %struct.Fifo8, %struct.SCSIBus, ptr, ptr, %struct.Fifo8, i8, i8, i32, i8, i8, i32, i32, ptr, ptr, ptr, ptr, ptr, i8, i8, i32, i32, i8, i32, i32, [16 x i8], [32 x i8], i32 }
%struct.DeviceState = type { %struct.Object, ptr, ptr, i8, i8, i64, ptr, i32, i8, ptr, %struct.NamedGPIOListHead, %struct.NamedClockListHead, %struct.BusStateHead, i32, i32, i32, %struct.ResettableState, ptr, %struct.MemReentrancyGuard }
%struct.Object = type { ptr, ptr, ptr, i32, ptr }
%struct.NamedGPIOListHead = type { ptr }
%struct.NamedClockListHead = type { ptr }
%struct.BusStateHead = type { ptr }
%struct.ResettableState = type { i32, i8, i8 }
%struct.MemReentrancyGuard = type { i8 }
%struct.SCSIBus = type { %struct.BusState, i32, %struct.SCSISense, ptr, i32 }
%struct.BusState = type { %struct.Object, ptr, ptr, ptr, i32, i8, i8, i32, %union.BusChildHead, %struct.BusStateEntry, %struct.ResettableState }
%union.BusChildHead = type { %struct.QTailQLink }
%struct.QTailQLink = type { ptr, ptr }
%struct.BusStateEntry = type { ptr, ptr }
%struct.SCSISense = type { i8, i8, i8 }
%struct.Fifo8 = type { ptr, i32, i32, i32 }

@.str.3 = private unnamed_addr constant [4 x i8] c"esp\00", align 1
@.str.104 = private unnamed_addr constant [100 x i8] c"/home/dtcxzyw/WorkSpace/Projects/compilers/llvm-opt-benchmark/bench/qemu/qemu/include/hw/scsi/esp.h\00", align 1
@__func__.ESP = private unnamed_addr constant [4 x i8] c"ESP\00", align 1

; Function Attrs: nounwind sspstrong uwtable
define internal void @esp_set_tc(ptr noundef %s, i32 noundef %dmalen) #0 {
entry:
  %s.addr = alloca ptr, align 8
  %dmalen.addr = alloca i32, align 4
  store ptr %s, ptr %s.addr, align 8
  store i32 %dmalen, ptr %dmalen.addr, align 4
  %0 = load i32, ptr %dmalen.addr, align 4
  %conv = trunc i32 %0 to i8
  %1 = load ptr, ptr %s.addr, align 8
  %rregs = getelementptr inbounds %struct.ESPState, ptr %1, i32 0, i32 1
  %arrayidx = getelementptr [16 x i8], ptr %rregs, i64 0, i64 0
  store i8 %conv, ptr %arrayidx, align 8
  %2 = load i32, ptr %dmalen.addr, align 4
  %shr = lshr i32 %2, 8
  %conv1 = trunc i32 %shr to i8
  %3 = load ptr, ptr %s.addr, align 8
  %rregs2 = getelementptr inbounds %struct.ESPState, ptr %3, i32 0, i32 1
  %arrayidx3 = getelementptr [16 x i8], ptr %rregs2, i64 0, i64 1
  store i8 %conv1, ptr %arrayidx3, align 1
  %4 = load i32, ptr %dmalen.addr, align 4
  %shr4 = lshr i32 %4, 16
  %conv5 = trunc i32 %shr4 to i8
  %5 = load ptr, ptr %s.addr, align 8
  %rregs6 = getelementptr inbounds %struct.ESPState, ptr %5, i32 0, i32 1
  %arrayidx7 = getelementptr [16 x i8], ptr %rregs6, i64 0, i64 14
  store i8 %conv5, ptr %arrayidx7, align 2
  ret void
}

; Function Attrs: nounwind sspstrong uwtable
define internal ptr @ESP(ptr noundef %obj) #0 {
entry:
  %obj.addr = alloca ptr, align 8
  store ptr %obj, ptr %obj.addr, align 8
  %0 = load ptr, ptr %obj.addr, align 8
  %call = call ptr @object_dynamic_cast_assert(ptr noundef %0, ptr noundef @.str.3, ptr noundef @.str.104, i32 noundef 20, ptr noundef @__func__.ESP)
  ret ptr %call
}

; Function Attrs: nounwind sspstrong uwtable
define internal i32 @esp_post_load(ptr noundef %opaque, i32 noundef %version_id) #0 {
entry:
  %opaque.addr = alloca ptr, align 8
  %version_id.addr = alloca i32, align 4
  %s = alloca ptr, align 8
  %len = alloca i32, align 4
  %i = alloca i32, align 4
  %_a33 = alloca i32, align 4
  %_b34 = alloca i32, align 4
  %tmp = alloca i32, align 4
  store ptr %opaque, ptr %opaque.addr, align 8
  store i32 %version_id, ptr %version_id.addr, align 4
  %0 = load ptr, ptr %opaque.addr, align 8
  %call = call ptr @ESP(ptr noundef %0)
  store ptr %call, ptr %s, align 8
  %1 = load i32, ptr %version_id.addr, align 4
  store i32 %1, ptr %_a33, align 4
  %2 = load ptr, ptr %s, align 8
  %mig_version_id = getelementptr inbounds %struct.ESPState, ptr %2, i32 0, i32 28
  %3 = load i8, ptr %mig_version_id, align 1
  %conv = zext i8 %3 to i32
  store i32 %conv, ptr %_b34, align 4
  %4 = load i32, ptr %_a33, align 4
  %5 = load i32, ptr %_b34, align 4
  %cmp = icmp slt i32 %4, %5
  br i1 %cmp, label %cond.true, label %cond.false

cond.true:                                        ; preds = %entry
  %6 = load i32, ptr %_a33, align 4
  br label %cond.end

cond.false:                                       ; preds = %entry
  %7 = load i32, ptr %_b34, align 4
  br label %cond.end

cond.end:                                         ; preds = %cond.false, %cond.true
  %cond = phi i32 [ %6, %cond.true ], [ %7, %cond.false ]
  store i32 %cond, ptr %tmp, align 4
  %8 = load i32, ptr %tmp, align 4
  store i32 %8, ptr %version_id.addr, align 4
  %9 = load i32, ptr %version_id.addr, align 4
  %cmp2 = icmp slt i32 %9, 5
  br i1 %cmp2, label %if.then, label %if.end

if.then:                                          ; preds = %cond.end
  %10 = load ptr, ptr %s, align 8
  %11 = load ptr, ptr %s, align 8
  %mig_dma_left = getelementptr inbounds %struct.ESPState, ptr %11, i32 0, i32 29
  %12 = load i32, ptr %mig_dma_left, align 4
  call void @esp_set_tc(ptr noundef %10, i32 noundef %12)
  %13 = load ptr, ptr %s, align 8
  %mig_ti_wptr = getelementptr inbounds %struct.ESPState, ptr %13, i32 0, i32 33
  %14 = load i32, ptr %mig_ti_wptr, align 4
  %15 = load ptr, ptr %s, align 8
  %mig_ti_rptr = getelementptr inbounds %struct.ESPState, ptr %15, i32 0, i32 32
  %16 = load i32, ptr %mig_ti_rptr, align 8
  %sub = sub i32 %14, %16
  store i32 %sub, ptr %len, align 4
  store i32 0, ptr %i, align 4
  br label %for.cond

for.cond:                                         ; preds = %for.inc, %if.then
  %17 = load i32, ptr %i, align 4
  %18 = load i32, ptr %len, align 4
  %cmp4 = icmp slt i32 %17, %18
  br i1 %cmp4, label %for.body, label %for.end

for.body:                                         ; preds = %for.cond
  %19 = load ptr, ptr %s, align 8
  %fifo = getelementptr inbounds %struct.ESPState, ptr %19, i32 0, i32 10
  %20 = load ptr, ptr %s, align 8
  %mig_ti_buf = getelementptr inbounds %struct.ESPState, ptr %20, i32 0, i32 34
  %21 = load i32, ptr %i, align 4
  %idxprom = sext i32 %21 to i64
  %arrayidx = getelementptr [16 x i8], ptr %mig_ti_buf, i64 0, i64 %idxprom
  %22 = load i8, ptr %arrayidx, align 1
  call void @fifo8_push(ptr noundef %fifo, i8 noundef zeroext %22)
  br label %for.inc

for.inc:                                          ; preds = %for.body
  %23 = load i32, ptr %i, align 4
  %inc = add i32 %23, 1
  store i32 %inc, ptr %i, align 4
  br label %for.cond, !llvm.loop !7

for.end:                                          ; preds = %for.cond
  store i32 0, ptr %i, align 4
  br label %for.cond6

for.cond6:                                        ; preds = %for.inc12, %for.end
  %24 = load i32, ptr %i, align 4
  %25 = load ptr, ptr %s, align 8
  %mig_cmdlen = getelementptr inbounds %struct.ESPState, ptr %25, i32 0, i32 36
  %26 = load i32, ptr %mig_cmdlen, align 8
  %cmp7 = icmp ult i32 %24, %26
  br i1 %cmp7, label %for.body9, label %for.end14

for.body9:                                        ; preds = %for.cond6
  %27 = load ptr, ptr %s, align 8
  %cmdfifo = getelementptr inbounds %struct.ESPState, ptr %27, i32 0, i32 14
  %28 = load ptr, ptr %s, align 8
  %mig_cmdbuf = getelementptr inbounds %struct.ESPState, ptr %28, i32 0, i32 35
  %29 = load i32, ptr %i, align 4
  %idxprom10 = sext i32 %29 to i64
  %arrayidx11 = getelementptr [32 x i8], ptr %mig_cmdbuf, i64 0, i64 %idxprom10
  %30 = load i8, ptr %arrayidx11, align 1
  call void @fifo8_push(ptr noundef %cmdfifo, i8 noundef zeroext %30)
  br label %for.inc12

for.inc12:                                        ; preds = %for.body9
  %31 = load i32, ptr %i, align 4
  %inc13 = add i32 %31, 1
  store i32 %inc13, ptr %i, align 4
  br label %for.cond6, !llvm.loop !8

for.end14:                                        ; preds = %for.cond6
  br label %if.end

if.end:                                           ; preds = %for.end14, %cond.end
  %32 = load ptr, ptr %s, align 8
  %mig_version_id15 = getelementptr inbounds %struct.ESPState, ptr %32, i32 0, i32 28
  store i8 6, ptr %mig_version_id15, align 1
  ret i32 0
}