; Function Attrs: nounwind sspstrong uwtable
define internal noundef i32 @esp_post_load(ptr noundef %opaque, i32 noundef %version_id) #0 {
entry:
  %call.i = tail call ptr @object_dynamic_cast_assert(ptr noundef %opaque, ptr noundef nonnull @.str.3, ptr noundef nonnull @.str.104, i32 noundef 20, ptr noundef nonnull @__func__.ESP) #10
  %mig_version_id = getelementptr inbounds nuw i8, ptr %call.i, i64 497
  %0 = load i8, ptr %mig_version_id, align 1
  %conv = zext i8 %0 to i32
  %cond = tail call i32 @llvm.smin.i32(i32 %version_id, i32 %conv)
  %cmp2 = icmp slt i32 %cond, 5
  br i1 %cmp2, label %if.then, label %if.end

if.then:                                          ; preds = %entry
  %mig_dma_left = getelementptr inbounds nuw i8, ptr %call.i, i64 500
  %1 = load i32, ptr %mig_dma_left, align 4
  %conv.i = trunc i32 %1 to i8
  %rregs.i = getelementptr inbounds nuw i8, ptr %call.i, i64 160
  store i8 %conv.i, ptr %rregs.i, align 8
  %shr.i = lshr i32 %1, 8
  %conv1.i = trunc i32 %shr.i to i8
  %arrayidx3.i = getelementptr i8, ptr %call.i, i64 161
  store i8 %conv1.i, ptr %arrayidx3.i, align 1
  %shr4.i = lshr i32 %1, 16
  %conv5.i = trunc i32 %shr4.i to i8
  %arrayidx7.i = getelementptr i8, ptr %call.i, i64 174
  store i8 %conv5.i, ptr %arrayidx7.i, align 2
  %mig_ti_wptr = getelementptr inbounds nuw i8, ptr %call.i, i64 516
  %2 = load i32, ptr %mig_ti_wptr, align 4
  %mig_ti_rptr = getelementptr inbounds nuw i8, ptr %call.i, i64 512
  %3 = load i32, ptr %mig_ti_rptr, align 8
  %sub = sub i32 %2, %3
  %cmp419 = icmp sgt i32 %sub, 0
  br i1 %cmp419, label %for.body.lr.ph, label %for.cond6.preheader

for.body.lr.ph:                                   ; preds = %if.then
  %fifo = getelementptr inbounds nuw i8, ptr %call.i, i64 224
  %mig_ti_buf = getelementptr inbounds nuw i8, ptr %call.i, i64 520
  %wide.trip.count = zext nneg i32 %sub to i64
  br label %for.body

for.cond6.preheader:                              ; preds = %for.body, %if.then
  %mig_cmdlen = getelementptr inbounds nuw i8, ptr %call.i, i64 568
  %4 = load i32, ptr %mig_cmdlen, align 8
  %cmp721.not = icmp eq i32 %4, 0
  br i1 %cmp721.not, label %if.end, label %for.body9.lr.ph

for.body9.lr.ph:                                  ; preds = %for.cond6.preheader
  %cmdfifo = getelementptr inbounds nuw i8, ptr %call.i, i64 408
  %mig_cmdbuf = getelementptr inbounds nuw i8, ptr %call.i, i64 536
  br label %for.body9

for.body:                                         ; preds = %for.body.lr.ph, %for.body
  %indvars.iv = phi i64 [ 0, %for.body.lr.ph ], [ %indvars.iv.next, %for.body ]
  %arrayidx = getelementptr [16 x i8], ptr %mig_ti_buf, i64 0, i64 %indvars.iv
  %5 = load i8, ptr %arrayidx, align 1
  tail call void @fifo8_push(ptr noundef nonnull %fifo, i8 noundef zeroext %5) #10
  %indvars.iv.next = add nuw nsw i64 %indvars.iv, 1
  %exitcond.not = icmp eq i64 %indvars.iv.next, %wide.trip.count
  br i1 %exitcond.not, label %for.cond6.preheader, label %for.body, !llvm.loop !7

for.body9:                                        ; preds = %for.body9.lr.ph, %for.body9
  %i.122 = phi i32 [ 0, %for.body9.lr.ph ], [ %inc13, %for.body9 ]
  %idxprom10 = sext i32 %i.122 to i64
  %arrayidx11 = getelementptr [32 x i8], ptr %mig_cmdbuf, i64 0, i64 %idxprom10
  %6 = load i8, ptr %arrayidx11, align 1
  tail call void @fifo8_push(ptr noundef nonnull %cmdfifo, i8 noundef zeroext %6) #10
  %inc13 = add nuw i32 %i.122, 1
  %7 = load i32, ptr %mig_cmdlen, align 8
  %cmp7 = icmp ult i32 %inc13, %7
  br i1 %cmp7, label %for.body9, label %if.end, !llvm.loop !8

if.end:                                           ; preds = %for.body9, %for.cond6.preheader, %entry
  store i8 6, ptr %mig_version_id, align 1
  ret i32 0
}